target datalayout = "e-m:e-p270:32:32-p271:32:32-p272:64:64-i64:64-i128:128-f80:128-n8:16:32:64-S128"
target triple = "x86_64-pc-linux-gnu"

%struct.erf_anchor_mapping = type { i64, i64, i64, ptr }

; Function Attrs: nounwind null_pointer_is_valid sspstrong uwtable
define internal i32 @erf_anchor_mapping_equal(ptr noundef %0, ptr noundef %1) #6 {
  %3 = alloca ptr, align 8
  %4 = alloca ptr, align 8
  %5 = alloca ptr, align 8
  %6 = alloca ptr, align 8
  store ptr %0, ptr %3, align 8
  store ptr %1, ptr %4, align 8
  call void @llvm.lifetime.start.p0(i64 8, ptr %5) #16
  %7 = load ptr, ptr %3, align 8
  store ptr %7, ptr %5, align 8
  call void @llvm.lifetime.start.p0(i64 8, ptr %6) #16
  %8 = load ptr, ptr %4, align 8
  store ptr %8, ptr %6, align 8
  %9 = load ptr, ptr %5, align 8
  %10 = getelementptr inbounds nuw %struct.erf_anchor_mapping, ptr %9, i32 0, i32 0
  %11 = load i64, ptr %10, align 8
  %12 = load ptr, ptr %6, align 8
  %13 = getelementptr inbounds nuw %struct.erf_anchor_mapping, ptr %12, i32 0, i32 0
  %14 = load i64, ptr %13, align 8
  %15 = icmp eq i64 %11, %14
  br i1 %15, label %16, label %26

16:                                               ; preds = %2
  %17 = load ptr, ptr %5, align 8
  %18 = getelementptr inbounds nuw %struct.erf_anchor_mapping, ptr %17, i32 0, i32 1
  %19 = load i64, ptr %18, align 8
  %20 = and i64 %19, 18
  %21 = load ptr, ptr %6, align 8
  %22 = getelementptr inbounds nuw %struct.erf_anchor_mapping, ptr %21, i32 0, i32 1
  %23 = load i64, ptr %22, align 8
  %24 = and i64 %23, 18
  %25 = icmp eq i64 %20, %24
  br label %26

26:                                               ; preds = %16, %2
  %27 = phi i1 [ false, %2 ], [ %25, %16 ]
  %28 = zext i1 %27 to i32
  call void @llvm.lifetime.end.p0(i64 8, ptr %6) #16
  call void @llvm.lifetime.end.p0(i64 8, ptr %5) #16
  ret i32 %28
}