; Function Attrs: mustprogress nofree norecurse nosync nounwind null_pointer_is_valid sspstrong willreturn memory(argmem: read) uwtable
define internal range(i32 0, 2) i32 @erf_anchor_mapping_equal(ptr noundef readonly captures(none) %0, ptr noundef readonly captures(none) %1) #4 {
  %3 = load i64, ptr %0, align 8
  %4 = load i64, ptr %1, align 8
  %5 = icmp eq i64 %3, %4
  br i1 %5, label %6, label %15

6:                                                ; preds = %2
  %7 = getelementptr inbounds nuw i8, ptr %0, i64 8
  %8 = load i64, ptr %7, align 8
  %9 = getelementptr inbounds nuw i8, ptr %1, i64 8
  %10 = load i64, ptr %9, align 8
  %11 = xor i64 %10, %8
  %12 = and i64 %11, 18
  %13 = icmp eq i64 %12, 0
  %14 = zext i1 %13 to i32
  br label %15

15:                                               ; preds = %6, %2
  %16 = phi i32 [ 0, %2 ], [ %14, %6 ]
  ret i32 %16
}